target datalayout = "e-m:e-p270:32:32-p271:32:32-p272:64:64-i64:64-i128:128-f80:128-n8:16:32:64-S128"
target triple = "x86_64-unknown-linux-gnu"

%struct.addrinfo = type { i32, i32, i32, i32, i32, ptr, ptr, ptr }
%union.__CONST_SOCKADDR_ARG = type { ptr }
%struct.sockaddr_un = type { i16, [108 x i8] }
%struct.sockaddr = type { i16, [14 x i8] }

@.str.8 = private unnamed_addr constant [3 x i8] c"%s\00", align 1
@.str.12 = private unnamed_addr constant [15 x i8] c"setsockopt: %s\00", align 1
@.str.14 = private unnamed_addr constant [3 x i8] c"%d\00", align 1
@.str.15 = private unnamed_addr constant [9 x i8] c"bind: %s\00", align 1
@.str.17 = private unnamed_addr constant [28 x i8] c"setsockopt SO_REUSEADDR: %s\00", align 1
@.str.18 = private unnamed_addr constant [2 x i8] c"*\00", align 1
@.str.19 = private unnamed_addr constant [4 x i8] c"::*\00", align 1
@.str.20 = private unnamed_addr constant [33 x i8] c"unable to bind socket, errno: %d\00", align 1
@.str.21 = private unnamed_addr constant [11 x i8] c"listen: %s\00", align 1

; Function Attrs: nounwind uwtable
define internal i32 @anetListen(ptr noundef %err, i32 noundef %s, ptr noundef %sa, i32 noundef %len, i32 noundef %backlog, i32 noundef %perm) #0 {
entry:
  %retval = alloca i32, align 4
  %err.addr = alloca ptr, align 8
  %s.addr = alloca i32, align 4
  %sa.addr = alloca ptr, align 8
  %len.addr = alloca i32, align 4
  %backlog.addr = alloca i32, align 4
  %perm.addr = alloca i32, align 4
  %agg.tmp = alloca %union.__CONST_SOCKADDR_ARG, align 8
  store ptr %err, ptr %err.addr, align 8
  store i32 %s, ptr %s.addr, align 4
  store ptr %sa, ptr %sa.addr, align 8
  store i32 %len, ptr %len.addr, align 4
  store i32 %backlog, ptr %backlog.addr, align 4
  store i32 %perm, ptr %perm.addr, align 4
  %0 = load i32, ptr %s.addr, align 4
  %1 = load ptr, ptr %sa.addr, align 8
  store ptr %1, ptr %agg.tmp, align 8
  %2 = load i32, ptr %len.addr, align 4
  %coerce.dive = getelementptr inbounds %union.__CONST_SOCKADDR_ARG, ptr %agg.tmp, i32 0, i32 0
  %3 = load ptr, ptr %coerce.dive, align 8
  %call = call i32 @bind(i32 noundef %0, ptr %3, i32 noundef %2) #7
  %cmp = icmp eq i32 %call, -1
  br i1 %cmp, label %if.then, label %if.end

if.then:                                          ; preds = %entry
  %4 = load ptr, ptr %err.addr, align 8
  %call1 = call ptr @__errno_location() #8
  %5 = load i32, ptr %call1, align 4
  %call2 = call ptr @strerror(i32 noundef %5) #7
  call void (ptr, ptr, ...) @anetSetError(ptr noundef %4, ptr noundef @.str.15, ptr noundef %call2)
  %6 = load i32, ptr %s.addr, align 4
  %call3 = call i32 @close(i32 noundef %6)
  store i32 -1, ptr %retval, align 4
  br label %return

if.end:                                           ; preds = %entry
  %7 = load ptr, ptr %sa.addr, align 8
  %sa_family = getelementptr inbounds %struct.sockaddr, ptr %7, i32 0, i32 0
  %8 = load i16, ptr %sa_family, align 2
  %conv = zext i16 %8 to i32
  %cmp4 = icmp eq i32 %conv, 1
  br i1 %cmp4, label %land.lhs.true, label %if.end8

land.lhs.true:                                    ; preds = %if.end
  %9 = load i32, ptr %perm.addr, align 4
  %tobool = icmp ne i32 %9, 0
  br i1 %tobool, label %if.then6, label %if.end8

if.then6:                                         ; preds = %land.lhs.true
  %10 = load ptr, ptr %sa.addr, align 8
  %sun_path = getelementptr inbounds %struct.sockaddr_un, ptr %10, i32 0, i32 1
  %arraydecay = getelementptr inbounds [108 x i8], ptr %sun_path, i64 0, i64 0
  %11 = load i32, ptr %perm.addr, align 4
  %call7 = call i32 @chmod(ptr noundef %arraydecay, i32 noundef %11) #7
  br label %if.end8

if.end8:                                          ; preds = %if.then6, %land.lhs.true, %if.end
  %12 = load i32, ptr %s.addr, align 4
  %13 = load i32, ptr %backlog.addr, align 4
  %call9 = call i32 @listen(i32 noundef %12, i32 noundef %13) #7
  %cmp10 = icmp eq i32 %call9, -1
  br i1 %cmp10, label %if.then12, label %if.end16

if.then12:                                        ; preds = %if.end8
  %14 = load ptr, ptr %err.addr, align 8
  %call13 = call ptr @__errno_location() #8
  %15 = load i32, ptr %call13, align 4
  %call14 = call ptr @strerror(i32 noundef %15) #7
  call void (ptr, ptr, ...) @anetSetError(ptr noundef %14, ptr noundef @.str.21, ptr noundef %call14)
  %16 = load i32, ptr %s.addr, align 4
  %call15 = call i32 @close(i32 noundef %16)
  store i32 -1, ptr %retval, align 4
  br label %return

if.end16:                                         ; preds = %if.end8
  store i32 0, ptr %retval, align 4
  br label %return

return:                                           ; preds = %if.end16, %if.then12, %if.then
  %17 = load i32, ptr %retval, align 4
  ret i32 %17
}

; Function Attrs: nounwind uwtable
define internal i32 @anetSetReuseAddr(ptr noundef %err, i32 noundef %fd) #0 {
entry:
  %retval = alloca i32, align 4
  %err.addr = alloca ptr, align 8
  %fd.addr = alloca i32, align 4
  %yes = alloca i32, align 4
  store ptr %err, ptr %err.addr, align 8
  store i32 %fd, ptr %fd.addr, align 4
  store i32 1, ptr %yes, align 4
  %0 = load i32, ptr %fd.addr, align 4
  %call = call i32 @setsockopt(i32 noundef %0, i32 noundef 1, i32 noundef 2, ptr noundef %yes, i32 noundef 4) #7
  %cmp = icmp eq i32 %call, -1
  br i1 %cmp, label %if.then, label %if.end

if.then:                                          ; preds = %entry
  %1 = load ptr, ptr %err.addr, align 8
  %call1 = call ptr @__errno_location() #8
  %2 = load i32, ptr %call1, align 4
  %call2 = call ptr @strerror(i32 noundef %2) #7
  call void (ptr, ptr, ...) @anetSetError(ptr noundef %1, ptr noundef @.str.17, ptr noundef %call2)
  store i32 -1, ptr %retval, align 4
  br label %return

if.end:                                           ; preds = %entry
  store i32 0, ptr %retval, align 4
  br label %return

return:                                           ; preds = %if.end, %if.then
  %3 = load i32, ptr %retval, align 4
  ret i32 %3
}

; Function Attrs: nounwind uwtable
define internal i32 @anetV6Only(ptr noundef %err, i32 noundef %s) #0 {
entry:
  %retval = alloca i32, align 4
  %err.addr = alloca ptr, align 8
  %s.addr = alloca i32, align 4
  %yes = alloca i32, align 4
  store ptr %err, ptr %err.addr, align 8
  store i32 %s, ptr %s.addr, align 4
  store i32 1, ptr %yes, align 4
  %0 = load i32, ptr %s.addr, align 4
  %call = call i32 @setsockopt(i32 noundef %0, i32 noundef 41, i32 noundef 26, ptr noundef %yes, i32 noundef 4) #7
  %cmp = icmp eq i32 %call, -1
  br i1 %cmp, label %if.then, label %if.end

if.then:                                          ; preds = %entry
  %1 = load ptr, ptr %err.addr, align 8
  %call1 = call ptr @__errno_location() #8
  %2 = load i32, ptr %call1, align 4
  %call2 = call ptr @strerror(i32 noundef %2) #7
  call void (ptr, ptr, ...) @anetSetError(ptr noundef %1, ptr noundef @.str.12, ptr noundef %call2)
  store i32 -1, ptr %retval, align 4
  br label %return

if.end:                                           ; preds = %entry
  store i32 0, ptr %retval, align 4
  br label %return

return:                                           ; preds = %if.end, %if.then
  %3 = load i32, ptr %retval, align 4
  ret i32 %3
}

; Function Attrs: nounwind uwtable
define internal i32 @_anetTcpServer(ptr noundef %err, i32 noundef %port, ptr noundef %bindaddr, i32 noundef %af, i32 noundef %backlog) #0 {
entry:
  %retval = alloca i32, align 4
  %err.addr = alloca ptr, align 8
  %port.addr = alloca i32, align 4
  %bindaddr.addr = alloca ptr, align 8
  %af.addr = alloca i32, align 4
  %backlog.addr = alloca i32, align 4
  %s = alloca i32, align 4
  %rv = alloca i32, align 4
  %_port = alloca [6 x i8], align 1
  %hints = alloca %struct.addrinfo, align 8
  %servinfo = alloca ptr, align 8
  %p = alloca ptr, align 8
  store ptr %err, ptr %err.addr, align 8
  store i32 %port, ptr %port.addr, align 4
  store ptr %bindaddr, ptr %bindaddr.addr, align 8
  store i32 %af, ptr %af.addr, align 4
  store i32 %backlog, ptr %backlog.addr, align 4
  store i32 -1, ptr %s, align 4
  %arraydecay = getelementptr inbounds [6 x i8], ptr %_port, i64 0, i64 0
  %0 = load i32, ptr %port.addr, align 4
  %call = call i32 (ptr, i64, ptr, ...) @snprintf(ptr noundef %arraydecay, i64 noundef 6, ptr noundef @.str.14, i32 noundef %0) #7
  call void @llvm.memset.p0.i64(ptr align 8 %hints, i8 0, i64 48, i1 false)
  %1 = load i32, ptr %af.addr, align 4
  %ai_family = getelementptr inbounds %struct.addrinfo, ptr %hints, i32 0, i32 1
  store i32 %1, ptr %ai_family, align 4
  %ai_socktype = getelementptr inbounds %struct.addrinfo, ptr %hints, i32 0, i32 2
  store i32 1, ptr %ai_socktype, align 8
  %ai_flags = getelementptr inbounds %struct.addrinfo, ptr %hints, i32 0, i32 0
  store i32 1, ptr %ai_flags, align 8
  %2 = load ptr, ptr %bindaddr.addr, align 8
  %tobool = icmp ne ptr %2, null
  br i1 %tobool, label %land.lhs.true, label %if.end

land.lhs.true:                                    ; preds = %entry
  %3 = load ptr, ptr %bindaddr.addr, align 8
  %call1 = call i32 @strcmp(ptr noundef @.str.18, ptr noundef %3) #9
  %tobool2 = icmp ne i32 %call1, 0
  br i1 %tobool2, label %if.end, label %if.then

if.then:                                          ; preds = %land.lhs.true
  store ptr null, ptr %bindaddr.addr, align 8
  br label %if.end

if.end:                                           ; preds = %if.then, %land.lhs.true, %entry
  %4 = load i32, ptr %af.addr, align 4
  %cmp = icmp eq i32 %4, 10
  br i1 %cmp, label %land.lhs.true3, label %if.end9

land.lhs.true3:                                   ; preds = %if.end
  %5 = load ptr, ptr %bindaddr.addr, align 8
  %tobool4 = icmp ne ptr %5, null
  br i1 %tobool4, label %land.lhs.true5, label %if.end9

land.lhs.true5:                                   ; preds = %land.lhs.true3
  %6 = load ptr, ptr %bindaddr.addr, align 8
  %call6 = call i32 @strcmp(ptr noundef @.str.19, ptr noundef %6) #9
  %tobool7 = icmp ne i32 %call6, 0
  br i1 %tobool7, label %if.end9, label %if.then8

if.then8:                                         ; preds = %land.lhs.true5
  store ptr null, ptr %bindaddr.addr, align 8
  br label %if.end9

if.end9:                                          ; preds = %if.then8, %land.lhs.true5, %land.lhs.true3, %if.end
  %7 = load ptr, ptr %bindaddr.addr, align 8
  %arraydecay10 = getelementptr inbounds [6 x i8], ptr %_port, i64 0, i64 0
  %call11 = call i32 @getaddrinfo(ptr noundef %7, ptr noundef %arraydecay10, ptr noundef %hints, ptr noundef %servinfo)
  store i32 %call11, ptr %rv, align 4
  %cmp12 = icmp ne i32 %call11, 0
  br i1 %cmp12, label %if.then13, label %if.end15

if.then13:                                        ; preds = %if.end9
  %8 = load ptr, ptr %err.addr, align 8
  %9 = load i32, ptr %rv, align 4
  %call14 = call ptr @gai_strerror(i32 noundef %9) #7
  call void (ptr, ptr, ...) @anetSetError(ptr noundef %8, ptr noundef @.str.8, ptr noundef %call14)
  store i32 -1, ptr %retval, align 4
  br label %return

if.end15:                                         ; preds = %if.end9
  %10 = load ptr, ptr %servinfo, align 8
  store ptr %10, ptr %p, align 8
  br label %for.cond

for.cond:                                         ; preds = %for.inc, %if.end15
  %11 = load ptr, ptr %p, align 8
  %cmp16 = icmp ne ptr %11, null
  br i1 %cmp16, label %for.body, label %for.end

for.body:                                         ; preds = %for.cond
  %12 = load ptr, ptr %p, align 8
  %ai_family17 = getelementptr inbounds %struct.addrinfo, ptr %12, i32 0, i32 1
  %13 = load i32, ptr %ai_family17, align 4
  %14 = load ptr, ptr %p, align 8
  %ai_socktype18 = getelementptr inbounds %struct.addrinfo, ptr %14, i32 0, i32 2
  %15 = load i32, ptr %ai_socktype18, align 8
  %16 = load ptr, ptr %p, align 8
  %ai_protocol = getelementptr inbounds %struct.addrinfo, ptr %16, i32 0, i32 3
  %17 = load i32, ptr %ai_protocol, align 4
  %call19 = call i32 @socket(i32 noundef %13, i32 noundef %15, i32 noundef %17) #7
  store i32 %call19, ptr %s, align 4
  %cmp20 = icmp eq i32 %call19, -1
  br i1 %cmp20, label %if.then21, label %if.end22

if.then21:                                        ; preds = %for.body
  br label %for.inc

if.end22:                                         ; preds = %for.body
  %18 = load i32, ptr %af.addr, align 4
  %cmp23 = icmp eq i32 %18, 10
  br i1 %cmp23, label %land.lhs.true24, label %if.end28

land.lhs.true24:                                  ; preds = %if.end22
  %19 = load ptr, ptr %err.addr, align 8
  %20 = load i32, ptr %s, align 4
  %call25 = call i32 @anetV6Only(ptr noundef %19, i32 noundef %20)
  %cmp26 = icmp eq i32 %call25, -1
  br i1 %cmp26, label %if.then27, label %if.end28

if.then27:                                        ; preds = %land.lhs.true24
  br label %error

if.end28:                                         ; preds = %land.lhs.true24, %if.end22
  %21 = load ptr, ptr %err.addr, align 8
  %22 = load i32, ptr %s, align 4
  %call29 = call i32 @anetSetReuseAddr(ptr noundef %21, i32 noundef %22)
  %cmp30 = icmp eq i32 %call29, -1
  br i1 %cmp30, label %if.then31, label %if.end32

if.then31:                                        ; preds = %if.end28
  br label %error

if.end32:                                         ; preds = %if.end28
  %23 = load ptr, ptr %err.addr, align 8
  %24 = load i32, ptr %s, align 4
  %25 = load ptr, ptr %p, align 8
  %ai_addr = getelementptr inbounds %struct.addrinfo, ptr %25, i32 0, i32 5
  %26 = load ptr, ptr %ai_addr, align 8
  %27 = load ptr, ptr %p, align 8
  %ai_addrlen = getelementptr inbounds %struct.addrinfo, ptr %27, i32 0, i32 4
  %28 = load i32, ptr %ai_addrlen, align 8
  %29 = load i32, ptr %backlog.addr, align 4
  %call33 = call i32 @anetListen(ptr noundef %23, i32 noundef %24, ptr noundef %26, i32 noundef %28, i32 noundef %29, i32 noundef 0)
  %cmp34 = icmp eq i32 %call33, -1
  br i1 %cmp34, label %if.then35, label %if.end36

if.then35:                                        ; preds = %if.end32
  store i32 -1, ptr %s, align 4
  br label %if.end36

if.end36:                                         ; preds = %if.then35, %if.end32
  br label %end

for.inc:                                          ; preds = %if.then21
  %30 = load ptr, ptr %p, align 8
  %ai_next = getelementptr inbounds %struct.addrinfo, ptr %30, i32 0, i32 7
  %31 = load ptr, ptr %ai_next, align 8
  store ptr %31, ptr %p, align 8
  br label %for.cond, !llvm.loop !10

for.end:                                          ; preds = %for.cond
  %32 = load ptr, ptr %p, align 8
  %cmp37 = icmp eq ptr %32, null
  br i1 %cmp37, label %if.then38, label %if.end40

if.then38:                                        ; preds = %for.end
  %33 = load ptr, ptr %err.addr, align 8
  %call39 = call ptr @__errno_location() #8
  %34 = load i32, ptr %call39, align 4
  call void (ptr, ptr, ...) @anetSetError(ptr noundef %33, ptr noundef @.str.20, i32 noundef %34)
  br label %error

if.end40:                                         ; preds = %for.end
  br label %error

error:                                            ; preds = %if.end40, %if.then38, %if.then31, %if.then27
  %35 = load i32, ptr %s, align 4
  %cmp41 = icmp ne i32 %35, -1
  br i1 %cmp41, label %if.then42, label %if.end44

if.then42:                                        ; preds = %error
  %36 = load i32, ptr %s, align 4
  %call43 = call i32 @close(i32 noundef %36)
  br label %if.end44

if.end44:                                         ; preds = %if.then42, %error
  store i32 -1, ptr %s, align 4
  br label %end

end:                                              ; preds = %if.end44, %if.end36
  %37 = load ptr, ptr %servinfo, align 8
  call void @freeaddrinfo(ptr noundef %37) #7
  %38 = load i32, ptr %s, align 4
  store i32 %38, ptr %retval, align 4
  br label %return

return:                                           ; preds = %end, %if.then13
  %39 = load i32, ptr %retval, align 4
  ret i32 %39
}