; Function Attrs: nounwind uwtable
define internal fastcc i32 @_anetTcpServer(ptr noundef %err, i32 noundef %port, ptr noundef %bindaddr, i32 noundef %af, i32 noundef %backlog) unnamed_addr #0 {
entry:
  %yes.i24 = alloca i32, align 4
  %yes.i = alloca i32, align 4
  %_port = alloca [6 x i8], align 1
  %hints = alloca %struct.addrinfo, align 8
  %servinfo = alloca ptr, align 8
  %call = call i32 (ptr, i64, ptr, ...) @snprintf(ptr noundef nonnull dereferenceable(1) %_port, i64 noundef 6, ptr noundef nonnull @.str.14, i32 noundef %port) #10
  %0 = getelementptr inbounds i8, ptr %hints, i64 8
  call void @llvm.memset.p0.i64(ptr noundef nonnull align 8 dereferenceable(48) %0, i8 0, i64 40, i1 false)
  %ai_family = getelementptr inbounds i8, ptr %hints, i64 4
  store i32 %af, ptr %ai_family, align 4
  %ai_socktype = getelementptr inbounds i8, ptr %hints, i64 8
  store i32 1, ptr %ai_socktype, align 8
  store i32 1, ptr %hints, align 8
  %tobool.not = icmp eq ptr %bindaddr, null
  br i1 %tobool.not, label %if.end.thread, label %if.end

if.end.thread:                                    ; preds = %entry
  %cmp35 = icmp eq i32 %af, 10
  br label %if.end9

if.end:                                           ; preds = %entry
  %call1 = tail call i32 @strcmp(ptr noundef nonnull dereferenceable(2) @.str.18, ptr noundef nonnull dereferenceable(1) %bindaddr) #12
  %tobool2.not = icmp eq i32 %call1, 0
  %spec.store.select = select i1 %tobool2.not, ptr null, ptr %bindaddr
  %cmp = icmp eq i32 %af, 10
  %tobool4 = icmp ne ptr %spec.store.select, null
  %or.cond = select i1 %cmp, i1 %tobool4, i1 false
  br i1 %or.cond, label %land.lhs.true5, label %if.end9

land.lhs.true5:                                   ; preds = %if.end
  %call6 = tail call i32 @strcmp(ptr noundef nonnull dereferenceable(4) @.str.19, ptr noundef nonnull dereferenceable(1) %spec.store.select) #12
  %tobool7.not = icmp eq i32 %call6, 0
  %spec.store.select1 = select i1 %tobool7.not, ptr null, ptr %spec.store.select
  br label %if.end9

if.end9:                                          ; preds = %if.end.thread, %land.lhs.true5, %if.end
  %cmp38 = phi i1 [ true, %land.lhs.true5 ], [ %cmp, %if.end ], [ %cmp35, %if.end.thread ]
  %bindaddr.addr.1 = phi ptr [ %spec.store.select1, %land.lhs.true5 ], [ %spec.store.select, %if.end ], [ null, %if.end.thread ]
  %call11 = call i32 @getaddrinfo(ptr noundef %bindaddr.addr.1, ptr noundef nonnull %_port, ptr noundef nonnull %hints, ptr noundef nonnull %servinfo) #10
  %cmp12.not = icmp eq i32 %call11, 0
  br i1 %cmp12.not, label %for.cond.preheader, label %if.then13

for.cond.preheader:                               ; preds = %if.end9
  %p.049 = load ptr, ptr %servinfo, align 8
  %cmp16.not50 = icmp eq ptr %p.049, null
  br i1 %cmp16.not50, label %error, label %for.body

if.then13:                                        ; preds = %if.end9
  %call14 = call ptr @gai_strerror(i32 noundef %call11) #10
  call void (ptr, ptr, ...) @anetSetError(ptr noundef %err, ptr noundef nonnull @.str.8, ptr noundef %call14)
  br label %return

for.body:                                         ; preds = %for.cond.preheader, %for.inc
  %p.051 = phi ptr [ %p.0, %for.inc ], [ %p.049, %for.cond.preheader ]
  %ai_family17 = getelementptr inbounds i8, ptr %p.051, i64 4
  %1 = load i32, ptr %ai_family17, align 4
  %ai_socktype18 = getelementptr inbounds i8, ptr %p.051, i64 8
  %2 = load i32, ptr %ai_socktype18, align 8
  %ai_protocol = getelementptr inbounds i8, ptr %p.051, i64 12
  %3 = load i32, ptr %ai_protocol, align 4
  %call19 = call i32 @socket(i32 noundef %1, i32 noundef %2, i32 noundef %3) #10
  %cmp20 = icmp eq i32 %call19, -1
  br i1 %cmp20, label %for.inc, label %if.end22

if.end22:                                         ; preds = %for.body
  br i1 %cmp38, label %land.lhs.true24, label %if.end28

land.lhs.true24:                                  ; preds = %if.end22
  call void @llvm.lifetime.start.p0(i64 4, ptr nonnull %yes.i)
  store i32 1, ptr %yes.i, align 4
  %call.i = call i32 @setsockopt(i32 noundef %call19, i32 noundef 41, i32 noundef 26, ptr noundef nonnull %yes.i, i32 noundef 4) #10
  %cmp.i = icmp eq i32 %call.i, -1
  br i1 %cmp.i, label %anetV6Only.exit.thread, label %anetV6Only.exit

anetV6Only.exit.thread:                           ; preds = %land.lhs.true24
  %call1.i = tail call ptr @__errno_location() #11
  %4 = load i32, ptr %call1.i, align 4
  %call2.i = call ptr @strerror(i32 noundef %4) #10
  call void (ptr, ptr, ...) @anetSetError(ptr noundef %err, ptr noundef nonnull @.str.12, ptr noundef %call2.i)
  call void @llvm.lifetime.end.p0(i64 4, ptr nonnull %yes.i)
  br label %if.then42

anetV6Only.exit:                                  ; preds = %land.lhs.true24
  call void @llvm.lifetime.end.p0(i64 4, ptr nonnull %yes.i)
  br label %if.end28

if.end28:                                         ; preds = %anetV6Only.exit, %if.end22
  call void @llvm.lifetime.start.p0(i64 4, ptr nonnull %yes.i24)
  store i32 1, ptr %yes.i24, align 4
  %call.i25 = call i32 @setsockopt(i32 noundef %call19, i32 noundef 1, i32 noundef 2, ptr noundef nonnull %yes.i24, i32 noundef 4) #10
  %cmp.i26 = icmp eq i32 %call.i25, -1
  br i1 %cmp.i26, label %anetSetReuseAddr.exit.thread, label %if.end32

anetSetReuseAddr.exit.thread:                     ; preds = %if.end28
  %call1.i29 = tail call ptr @__errno_location() #11
  %5 = load i32, ptr %call1.i29, align 4
  %call2.i30 = call ptr @strerror(i32 noundef %5) #10
  call void (ptr, ptr, ...) @anetSetError(ptr noundef %err, ptr noundef nonnull @.str.17, ptr noundef %call2.i30)
  call void @llvm.lifetime.end.p0(i64 4, ptr nonnull %yes.i24)
  br label %if.then42

if.end32:                                         ; preds = %if.end28
  call void @llvm.lifetime.end.p0(i64 4, ptr nonnull %yes.i24)
  %ai_addr = getelementptr inbounds i8, ptr %p.051, i64 24
  %6 = load ptr, ptr %ai_addr, align 8
  %ai_addrlen = getelementptr inbounds i8, ptr %p.051, i64 16
  %7 = load i32, ptr %ai_addrlen, align 8
  %call.i31 = call i32 @bind(i32 noundef %call19, ptr %6, i32 noundef %7) #10
  %cmp.i32 = icmp eq i32 %call.i31, -1
  br i1 %cmp.i32, label %8, label %if.end.i

if.end.i:                                         ; preds = %if.end32
  %call9.i = call i32 @listen(i32 noundef %call19, i32 noundef %backlog) #10
  %cmp10.i = icmp eq i32 %call9.i, -1
  br i1 %cmp10.i, label %8, label %end

8:                                                ; preds = %if.end32, %if.end.i
  %.str.21.sink.i = phi ptr [ @.str.15, %if.end32 ], [ @.str.21, %if.end.i ]
  %call13.i = tail call ptr @__errno_location() #11
  %9 = load i32, ptr %call13.i, align 4
  %call14.i = call ptr @strerror(i32 noundef %9) #10
  call void (ptr, ptr, ...) @anetSetError(ptr noundef %err, ptr noundef nonnull %.str.21.sink.i, ptr noundef %call14.i)
  %call15.i = call i32 @close(i32 noundef %call19) #10
  br label %end

for.inc:                                          ; preds = %for.body
  %ai_next = getelementptr inbounds i8, ptr %p.051, i64 40
  %p.0 = load ptr, ptr %ai_next, align 8
  %cmp16.not = icmp eq ptr %p.0, null
  br i1 %cmp16.not, label %error, label %for.body, !llvm.loop !10

error:                                            ; preds = %for.inc, %for.cond.preheader
  %call39 = tail call ptr @__errno_location() #11
  %10 = load i32, ptr %call39, align 4
  call void (ptr, ptr, ...) @anetSetError(ptr noundef %err, ptr noundef nonnull @.str.20, i32 noundef %10)
  br label %end

if.then42:                                        ; preds = %anetV6Only.exit.thread, %anetSetReuseAddr.exit.thread
  %call43 = call i32 @close(i32 noundef %call19) #10
  br label %end

end:                                              ; preds = %error, %8, %if.end.i, %if.then42
  %s.2 = phi i32 [ -1, %if.then42 ], [ -1, %error ], [ -1, %8 ], [ %call19, %if.end.i ]
  %11 = load ptr, ptr %servinfo, align 8
  call void @freeaddrinfo(ptr noundef %11) #10
  br label %return

return:                                           ; preds = %end, %if.then13
  %retval.0 = phi i32 [ -1, %if.then13 ], [ %s.2, %end ]
  ret i32 %retval.0
}